; Function Attrs: mustprogress uwtable
define hidden noundef ptr @_ZN7datalog21bound_relation_plugin22mk_filter_identical_fnERKNS_13relation_baseEjPKj(ptr noundef nonnull readnone align 8 captures(address) dereferenceable(128) %0, ptr noundef nonnull readonly align 8 captures(none) dereferenceable(28) %1, i32 noundef %2, ptr noundef readonly captures(none) %3) unnamed_addr #3 align 2 personality ptr @__gxx_personality_v0 {
  %5 = getelementptr inbounds nuw i8, ptr %1, i64 8
  %6 = load ptr, ptr %5, align 8, !tbaa !54
  %7 = icmp eq ptr %6, %0
  br i1 %7, label %8, label %_ZN7datalog21bound_relation_plugin19filter_identical_fnC2EjPKj.exit

8:                                                ; preds = %4
  %9 = tail call noalias noundef ptr @_ZN6memory8allocateEm(i64 noundef 16)
  store ptr getelementptr inbounds nuw inrange(-16, 40) (i8, ptr @_ZTVN7datalog21bound_relation_plugin19filter_identical_fnE, i64 16), ptr %9, align 8, !tbaa !17
  %10 = getelementptr inbounds nuw i8, ptr %9, i64 8
  store ptr null, ptr %10, align 8, !tbaa !61
  %.not.i.i.i = icmp eq i32 %2, 0
  br i1 %.not.i.i.i, label %_ZN7datalog21bound_relation_plugin19filter_identical_fnC2EjPKj.exit, label %.lr.ph.preheader.i.i.i

.lr.ph.preheader.i.i.i:                           ; preds = %8
  %wide.trip.count.i.i.i = zext i32 %2 to i64
  br label %.lr.ph.i.i.i

.lr.ph.i.i.i:                                     ; preds = %_ZN6vectorIjLb0EjE9push_backERKj.exit.i.i.i, %.lr.ph.preheader.i.i.i
  %11 = phi ptr [ null, %.lr.ph.preheader.i.i.i ], [ %20, %_ZN6vectorIjLb0EjE9push_backERKj.exit.i.i.i ]
  %indvars.iv.i.i.i = phi i64 [ 0, %.lr.ph.preheader.i.i.i ], [ %indvars.iv.next.i.i.i, %_ZN6vectorIjLb0EjE9push_backERKj.exit.i.i.i ]
  %12 = getelementptr inbounds nuw i32, ptr %3, i64 %indvars.iv.i.i.i
  %13 = icmp eq ptr %11, null
  br i1 %13, label %.noexc.i, label %14

14:                                               ; preds = %.lr.ph.i.i.i
  %15 = getelementptr inbounds i8, ptr %11, i64 -4
  %16 = load i32, ptr %15, align 4, !tbaa !40
  %17 = getelementptr inbounds i8, ptr %11, i64 -8
  %18 = load i32, ptr %17, align 4, !tbaa !40
  %19 = icmp eq i32 %16, %18
  br i1 %19, label %.noexc.i, label %_ZN6vectorIjLb0EjE9push_backERKj.exit.i.i.i

.noexc.i:                                         ; preds = %14, %.lr.ph.i.i.i
  tail call void @_ZN6vectorIjLb0EjE13expand_vectorEv(ptr noundef nonnull align 8 dereferenceable(8) %10)
  %.pre.i.i.i.i = load ptr, ptr %10, align 8, !tbaa !61
  %.phi.trans.insert.i.i.i.i = getelementptr inbounds i8, ptr %.pre.i.i.i.i, i64 -4
  %.pre2.i.i.i.i = load i32, ptr %.phi.trans.insert.i.i.i.i, align 4, !tbaa !40
  br label %_ZN6vectorIjLb0EjE9push_backERKj.exit.i.i.i

_ZN6vectorIjLb0EjE9push_backERKj.exit.i.i.i:      ; preds = %.noexc.i, %14
  %20 = phi ptr [ %.pre.i.i.i.i, %.noexc.i ], [ %11, %14 ]
  %21 = phi i32 [ %.pre2.i.i.i.i, %.noexc.i ], [ %16, %14 ]
  %22 = getelementptr inbounds i8, ptr %20, i64 -4
  %23 = zext i32 %21 to i64
  %24 = getelementptr inbounds nuw i32, ptr %20, i64 %23
  %25 = load i32, ptr %12, align 4, !tbaa !40
  store i32 %25, ptr %24, align 4, !tbaa !40
  %26 = add i32 %21, 1
  store i32 %26, ptr %22, align 4, !tbaa !40
  %indvars.iv.next.i.i.i = add nuw nsw i64 %indvars.iv.i.i.i, 1
  %exitcond.not.i.i.i = icmp eq i64 %indvars.iv.next.i.i.i, %wide.trip.count.i.i.i
  br i1 %exitcond.not.i.i.i, label %_ZN7datalog21bound_relation_plugin19filter_identical_fnC2EjPKj.exit, label %.lr.ph.i.i.i, !llvm.loop !62

_ZN7datalog21bound_relation_plugin19filter_identical_fnC2EjPKj.exit: ; preds = %_ZN6vectorIjLb0EjE9push_backERKj.exit.i.i.i, %8, %4
  %.0 = phi ptr [ null, %4 ], [ %9, %8 ], [ %9, %_ZN6vectorIjLb0EjE9push_backERKj.exit.i.i.i ]
  ret ptr %.0
}